; Function Attrs: nounwind uwtable
define hidden i32 @mbedtls_ssl_get_record_expansion(ptr noundef %0) local_unnamed_addr #0 {
  %2 = getelementptr inbounds nuw i8, ptr %0, i64 128
  %3 = load ptr, ptr %2, align 8, !tbaa !101
  %4 = getelementptr i8, ptr %0, i64 352
  %.val = load ptr, ptr %4, align 8, !tbaa !96
  %5 = getelementptr i8, ptr %0, i64 376
  %.val20 = load ptr, ptr %5, align 8, !tbaa !97
  %6 = ptrtoint ptr %.val20 to i64
  %7 = ptrtoint ptr %.val to i64
  %8 = sub i64 %6, %7
  %9 = icmp eq ptr %3, null
  br i1 %9, label %10, label %12

10:                                               ; preds = %1
  %11 = trunc i64 %8 to i32
  br label %32

12:                                               ; preds = %1
  %13 = getelementptr inbounds nuw i8, ptr %3, i64 128
  %.val21 = load ptr, ptr %13, align 8, !tbaa !120
  %14 = icmp eq ptr %.val21, null
  br i1 %14, label %mbedtls_cipher_get_cipher_mode.exit.thread, label %mbedtls_cipher_get_cipher_mode.exit

mbedtls_cipher_get_cipher_mode.exit:              ; preds = %12
  %15 = getelementptr inbounds nuw i8, ptr %.val21, i64 8
  %16 = load i32, ptr %15, align 8
  %17 = lshr i32 %16, 12
  %18 = and i32 %17, 15
  switch i32 %18, label %mbedtls_cipher_get_cipher_mode.exit.thread [
    i32 6, label %19
    i32 8, label %19
    i32 11, label %19
    i32 7, label %19
    i32 2, label %mbedtls_cipher_get_block_size.exit
  ]

19:                                               ; preds = %mbedtls_cipher_get_cipher_mode.exit, %mbedtls_cipher_get_cipher_mode.exit, %mbedtls_cipher_get_cipher_mode.exit, %mbedtls_cipher_get_cipher_mode.exit
  %20 = load i64, ptr %3, align 8, !tbaa !121
  br label %26

mbedtls_cipher_get_block_size.exit:               ; preds = %mbedtls_cipher_get_cipher_mode.exit
  %21 = getelementptr inbounds nuw i8, ptr %3, i64 24
  %22 = load i64, ptr %21, align 8, !tbaa !57
  %23 = shl i32 %16, 1
  %24 = and i32 %23, 62
  %reass.add = zext nneg i32 %24 to i64
  %25 = add i64 %22, %reass.add
  br label %26

mbedtls_cipher_get_cipher_mode.exit.thread:       ; preds = %12, %mbedtls_cipher_get_cipher_mode.exit
  tail call void (ptr, i32, ptr, i32, ptr, ...) @mbedtls_debug_print_msg(ptr noundef nonnull %0, i32 noundef 1, ptr noundef nonnull @.str, i32 noundef 5524, ptr noundef nonnull @.str.26) #19
  br label %32

26:                                               ; preds = %mbedtls_cipher_get_block_size.exit, %19
  %.018 = phi i64 [ %25, %mbedtls_cipher_get_block_size.exit ], [ %20, %19 ]
  %27 = getelementptr inbounds nuw i8, ptr %3, i64 321
  %28 = load i8, ptr %27, align 1, !tbaa !63
  %.not = icmp eq i8 %28, 0
  %29 = add i64 %.018, 16
  %spec.select = select i1 %.not, i64 %.018, i64 %29
  %30 = add i64 %spec.select, %8
  %31 = trunc i64 %30 to i32
  br label %32

32:                                               ; preds = %26, %mbedtls_cipher_get_cipher_mode.exit.thread, %10
  %.0 = phi i32 [ %11, %10 ], [ -27648, %mbedtls_cipher_get_cipher_mode.exit.thread ], [ %31, %26 ]
  ret i32 %.0
}